; Function Attrs: nounwind uwtable
define void @yyrestart(ptr noundef %0, ptr nocapture noundef %1) local_unnamed_addr #0 {
  %3 = getelementptr inbounds i8, ptr %1, i64 40
  %4 = load ptr, ptr %3, align 8
  %.not = icmp eq ptr %4, null
  br i1 %.not, label %10, label %5

5:                                                ; preds = %2
  %6 = getelementptr inbounds i8, ptr %1, i64 24
  %7 = load i64, ptr %6, align 8
  %8 = getelementptr inbounds ptr, ptr %4, i64 %7
  %9 = load ptr, ptr %8, align 8
  %.not16 = icmp eq ptr %9, null
  br i1 %.not16, label %10, label %.thread

10:                                               ; preds = %5, %2
  tail call fastcc void @yyensure_buffer_stack(ptr noundef nonnull %1)
  %11 = getelementptr inbounds i8, ptr %1, i64 8
  %12 = load ptr, ptr %11, align 8
  %13 = tail call ptr @yy_create_buffer(ptr noundef %12, i32 noundef 16384, ptr noundef nonnull %1)
  %14 = load ptr, ptr %3, align 8
  %15 = getelementptr inbounds i8, ptr %1, i64 24
  %16 = load i64, ptr %15, align 8
  %17 = getelementptr inbounds ptr, ptr %14, i64 %16
  store ptr %13, ptr %17, align 8
  %.pre = load ptr, ptr %3, align 8
  %.not17 = icmp eq ptr %.pre, null
  br i1 %.not17, label %23, label %.thread

.thread:                                          ; preds = %5, %10
  %18 = phi ptr [ %.pre, %10 ], [ %4, %5 ]
  %19 = getelementptr inbounds i8, ptr %1, i64 24
  %20 = load i64, ptr %19, align 8
  %21 = getelementptr inbounds ptr, ptr %18, i64 %20
  %22 = load ptr, ptr %21, align 8
  br label %23

23:                                               ; preds = %10, %.thread
  %24 = phi ptr [ %22, %.thread ], [ null, %10 ]
  tail call fastcc void @yy_init_buffer(ptr noundef %24, ptr noundef %0, ptr noundef nonnull %1)
  %25 = load ptr, ptr %3, align 8
  %26 = getelementptr inbounds i8, ptr %1, i64 24
  %27 = load i64, ptr %26, align 8
  %28 = getelementptr inbounds ptr, ptr %25, i64 %27
  %29 = load ptr, ptr %28, align 8
  %30 = getelementptr inbounds i8, ptr %29, i64 28
  %31 = load i32, ptr %30, align 4
  %32 = getelementptr inbounds i8, ptr %1, i64 52
  store i32 %31, ptr %32, align 4
  %33 = load ptr, ptr %28, align 8
  %34 = getelementptr inbounds i8, ptr %33, i64 16
  %35 = load ptr, ptr %34, align 8
  %36 = getelementptr inbounds i8, ptr %1, i64 64
  store ptr %35, ptr %36, align 8
  %37 = getelementptr inbounds i8, ptr %1, i64 128
  store ptr %35, ptr %37, align 8
  %38 = load ptr, ptr %28, align 8
  %39 = load ptr, ptr %38, align 8
  %40 = getelementptr inbounds i8, ptr %1, i64 8
  store ptr %39, ptr %40, align 8
  %41 = load i8, ptr %35, align 1
  %42 = getelementptr inbounds i8, ptr %1, i64 48
  store i8 %41, ptr %42, align 8
  ret void
}